; Function Attrs: nounwind uwtable
define internal fastcc void @build_hash_table(ptr noundef %0, i32 noundef %1) unnamed_addr #0 {
  %3 = icmp eq i32 %1, 0
  %spec.store.select = select i1 %3, i32 1024, i32 %1
  %4 = getelementptr inbounds nuw i8, ptr %0, i64 312
  %5 = load ptr, ptr %4, align 8
  %6 = tail call ptr @MemoryContextAllocZero(ptr noundef %5, i64 noundef 48) #11
  %7 = getelementptr inbounds nuw i8, ptr %6, i64 32
  store ptr %5, ptr %7, align 8
  %8 = getelementptr inbounds nuw i8, ptr %6, i64 40
  store ptr %0, ptr %8, align 8
  %9 = uitofp i32 %spec.store.select to double
  %10 = fdiv double %9, 9.000000e-01
  %11 = fcmp ogt double %10, 0x41F0000000000000
  %12 = select i1 %11, double 0x41F0000000000000, double %10
  %13 = fptoui double %12 to i64
  %14 = tail call i64 @llvm.umax.i64(i64 %13, i64 2)
  %15 = tail call range(i64 1, 65) i64 @llvm.ctpop.i64(i64 %14)
  %16 = icmp samesign ult i64 %15, 2
  %17 = tail call range(i64 0, 65) i64 @llvm.ctlz.i64(i64 %14, i1 true)
  %18 = sub nuw nsw i64 64, %17
  %19 = shl nuw i64 1, %18
  %.0.i.i.i = select i1 %16, i64 %14, i64 %19
  %20 = mul i64 %.0.i.i.i, 24
  %21 = icmp ugt i64 %20, 9223372036854775806
  br i1 %21, label %22, label %memoize_compute_size.exit.i, !prof !9

22:                                               ; preds = %2
  %23 = tail call zeroext i1 @errstart_cold(i32 noundef 21, ptr noundef null) #12
  tail call void @llvm.assume(i1 %23)
  %24 = tail call i32 (ptr, ...) @errmsg_internal(ptr noundef nonnull @.str.5) #11
  tail call void @errfinish(ptr noundef nonnull @.str.6, i32 noundef 327, ptr noundef nonnull @__func__.memoize_compute_size) #11
  unreachable

memoize_compute_size.exit.i:                      ; preds = %2
  %25 = tail call ptr @MemoryContextAllocExtended(ptr noundef %5, i64 noundef %20, i32 noundef 5) #11
  %26 = getelementptr inbounds nuw i8, ptr %6, i64 24
  store ptr %25, ptr %26, align 8
  %27 = tail call range(i64 1, 65) i64 @llvm.ctpop.i64(i64 %.0.i.i.i)
  %28 = icmp samesign ult i64 %27, 2
  %29 = tail call range(i64 0, 65) i64 @llvm.ctlz.i64(i64 %.0.i.i.i, i1 true)
  %30 = sub nuw nsw i64 64, %29
  %31 = shl nuw i64 1, %30
  %.0.i.i.i.i = select i1 %28, i64 %.0.i.i.i, i64 %31
  %32 = mul i64 %.0.i.i.i.i, 24
  %33 = icmp ugt i64 %32, 9223372036854775806
  br i1 %33, label %34, label %memoize_create.exit, !prof !9

34:                                               ; preds = %memoize_compute_size.exit.i
  %35 = tail call zeroext i1 @errstart_cold(i32 noundef 21, ptr noundef null) #12
  tail call void @llvm.assume(i1 %35)
  %36 = tail call i32 (ptr, ...) @errmsg_internal(ptr noundef nonnull @.str.5) #11
  tail call void @errfinish(ptr noundef nonnull @.str.6, i32 noundef 327, ptr noundef nonnull @__func__.memoize_compute_size) #11
  unreachable

memoize_create.exit:                              ; preds = %memoize_compute_size.exit.i
  store i64 %.0.i.i.i.i, ptr %6, align 8
  %37 = trunc i64 %.0.i.i.i.i to i32
  %38 = add i32 %37, -1
  %39 = getelementptr inbounds nuw i8, ptr %6, i64 12
  store i32 %38, ptr %39, align 4
  %40 = icmp eq i64 %.0.i.i.i.i, 4294967296
  %41 = uitofp i64 %.0.i.i.i.i to double
  %42 = fmul double %41, 9.000000e-01
  %43 = fptoui double %42 to i32
  %.sink.i.i = select i1 %40, i32 -85899346, i32 %43
  %44 = getelementptr inbounds nuw i8, ptr %6, i64 16
  store i32 %.sink.i.i, ptr %44, align 8
  %45 = getelementptr inbounds nuw i8, ptr %0, i64 232
  store ptr %6, ptr %45, align 8
  ret void
}